target datalayout = "e-m:e-p270:32:32-p271:32:32-p272:64:64-i64:64-i128:128-f80:128-n8:16:32:64-S128"
target triple = "x86_64-pc-linux-gnu"

%struct.rb_data_type_struct = type { ptr, %struct.anon, ptr, ptr, i64 }
%struct.anon = type { ptr, ptr, ptr, ptr, [1 x ptr] }
%struct.rb_io_buffer = type { ptr, i64, i32, i64 }

@rb_io_buffer_type = internal constant %struct.rb_data_type_struct { ptr @.str.108, %struct.anon { ptr @rb_io_buffer_type_mark, ptr @rb_io_buffer_type_free, ptr @rb_io_buffer_type_size, ptr null, [1 x ptr] zeroinitializer }, ptr null, ptr null, i64 35 }, align 8
@rb_eIOBufferLockedError = hidden global i64 0, align 8
@.str.15 = private unnamed_addr constant [23 x i8] c"Buffer already locked!\00", align 1

; Function Attrs: nounwind sspstrong uwtable
define hidden i64 @rb_io_buffer_locked(i64 noundef %0) #0 {
  %2 = alloca i64, align 8
  %3 = alloca ptr, align 8
  %4 = alloca i64, align 8
  store i64 %0, ptr %2, align 8, !tbaa !20
  call void @llvm.lifetime.start.p0(i64 8, ptr %3) #22
  store ptr null, ptr %3, align 8, !tbaa !11
  %5 = load i64, ptr %2, align 8, !tbaa !20
  %6 = call ptr @rb_check_typeddata(i64 noundef %5, ptr noundef @rb_io_buffer_type)
  store ptr %6, ptr %3, align 8, !tbaa !11
  %7 = load ptr, ptr %3, align 8, !tbaa !11
  %8 = getelementptr inbounds nuw %struct.rb_io_buffer, ptr %7, i32 0, i32 2
  %9 = load i32, ptr %8, align 8, !tbaa !18
  %10 = and i32 %9, 32
  %11 = icmp ne i32 %10, 0
  br i1 %11, label %12, label %14

12:                                               ; preds = %1
  %13 = load i64, ptr @rb_eIOBufferLockedError, align 8, !tbaa !20
  call void (i64, ptr, ...) @rb_raise(i64 noundef %13, ptr noundef @.str.15) #26
  unreachable

14:                                               ; preds = %1
  %15 = load ptr, ptr %3, align 8, !tbaa !11
  %16 = getelementptr inbounds nuw %struct.rb_io_buffer, ptr %15, i32 0, i32 2
  %17 = load i32, ptr %16, align 8, !tbaa !18
  %18 = or i32 %17, 32
  store i32 %18, ptr %16, align 8, !tbaa !18
  call void @llvm.lifetime.start.p0(i64 8, ptr %4) #22
  %19 = load i64, ptr %2, align 8, !tbaa !20
  %20 = call i64 @rb_yield(i64 noundef %19)
  store i64 %20, ptr %4, align 8, !tbaa !20
  %21 = load ptr, ptr %3, align 8, !tbaa !11
  %22 = getelementptr inbounds nuw %struct.rb_io_buffer, ptr %21, i32 0, i32 2
  %23 = load i32, ptr %22, align 8, !tbaa !18
  %24 = and i32 %23, -33
  store i32 %24, ptr %22, align 8, !tbaa !18
  %25 = load i64, ptr %4, align 8, !tbaa !20
  call void @llvm.lifetime.end.p0(i64 8, ptr %4) #22
  call void @llvm.lifetime.end.p0(i64 8, ptr %3) #22
  ret i64 %25
}