; Function Attrs: nounwind sspstrong uwtable
define hidden i64 @rb_io_buffer_locked(i64 noundef %0) #0 {
  %2 = tail call ptr @rb_check_typeddata(i64 noundef %0, ptr noundef nonnull @rb_io_buffer_type) #25
  %3 = getelementptr inbounds nuw i8, ptr %2, i64 16
  %4 = load i32, ptr %3, align 8, !tbaa !15
  %5 = and i32 %4, 32
  %.not = icmp eq i32 %5, 0
  br i1 %.not, label %8, label %6

6:                                                ; preds = %1
  %7 = load i64, ptr @rb_eIOBufferLockedError, align 8, !tbaa !22
  tail call void (i64, ptr, ...) @rb_raise(i64 noundef %7, ptr noundef nonnull @.str.15) #26
  unreachable

8:                                                ; preds = %1
  %9 = or disjoint i32 %4, 32
  store i32 %9, ptr %3, align 8, !tbaa !15
  %10 = tail call i64 @rb_yield(i64 noundef %0) #25
  %11 = load i32, ptr %3, align 8, !tbaa !15
  %12 = and i32 %11, -33
  store i32 %12, ptr %3, align 8, !tbaa !15
  ret i64 %10
}